target datalayout = "e-m:e-p270:32:32-p271:32:32-p272:64:64-i64:64-i128:128-f80:128-n8:16:32:64-S128"
target triple = "x86_64-pc-linux-gnu"

%"class.std::__exception_ptr::exception_ptr" = type { ptr }
%"class.tbb::detail::r1::tbb_exception_ptr" = type { %"class.std::__exception_ptr::exception_ptr" }

@_ZN3tbb6detail2r18governor17is_rethrow_brokenE = external global i8, align 1

; Function Attrs: inlinehint mustprogress nounwind sspstrong uwtable
define linkonce_odr void @_ZNSt15__exception_ptr13exception_ptrD2Ev(ptr noundef nonnull align 8 dereferenceable(8) %0) unnamed_addr #5 comdat align 2 {
  %2 = alloca ptr, align 8
  store ptr %0, ptr %2, align 8, !tbaa !8
  %3 = load ptr, ptr %2, align 8
  %4 = getelementptr inbounds nuw %"class.std::__exception_ptr::exception_ptr", ptr %3, i32 0, i32 0
  %5 = load ptr, ptr %4, align 8, !tbaa !10
  %6 = icmp ne ptr %5, null
  br i1 %6, label %7, label %8

7:                                                ; preds = %1
  call void @_ZNSt15__exception_ptr13exception_ptr10_M_releaseEv(ptr noundef nonnull align 8 dereferenceable(8) %3) #12
  br label %8

8:                                                ; preds = %7, %1
  ret void
}

; Function Attrs: inlinehint mustprogress nounwind sspstrong uwtable
define linkonce_odr void @_ZNSt15__exception_ptr13exception_ptrC2ERKS0_(ptr noundef nonnull align 8 dereferenceable(8) %0, ptr noundef nonnull align 8 dereferenceable(8) %1) unnamed_addr #5 comdat align 2 {
  %3 = alloca ptr, align 8
  %4 = alloca ptr, align 8
  store ptr %0, ptr %3, align 8, !tbaa !8
  store ptr %1, ptr %4, align 8, !tbaa !8
  %5 = load ptr, ptr %3, align 8
  %6 = getelementptr inbounds nuw %"class.std::__exception_ptr::exception_ptr", ptr %5, i32 0, i32 0
  %7 = load ptr, ptr %4, align 8, !tbaa !8
  %8 = getelementptr inbounds nuw %"class.std::__exception_ptr::exception_ptr", ptr %7, i32 0, i32 0
  %9 = load ptr, ptr %8, align 8, !tbaa !10
  store ptr %9, ptr %6, align 8, !tbaa !10
  %10 = getelementptr inbounds nuw %"class.std::__exception_ptr::exception_ptr", ptr %5, i32 0, i32 0
  %11 = load ptr, ptr %10, align 8, !tbaa !10
  %12 = icmp ne ptr %11, null
  br i1 %12, label %13, label %14

13:                                               ; preds = %2
  call void @_ZNSt15__exception_ptr13exception_ptr9_M_addrefEv(ptr noundef nonnull align 8 dereferenceable(8) %5) #12
  br label %14

14:                                               ; preds = %13, %2
  ret void
}

; Function Attrs: mustprogress nounwind sspstrong uwtable
define linkonce_odr noundef zeroext i1 @_ZN3tbb6detail2r18governor24rethrow_exception_brokenEv() #1 comdat align 2 {
  %1 = load i8, ptr @_ZN3tbb6detail2r18governor17is_rethrow_brokenE, align 1, !tbaa !12, !range !14, !noundef !15
  %2 = trunc i8 %1 to i1
  ret i1 %2
}

; Function Attrs: mustprogress sspstrong uwtable
define void @_ZN3tbb6detail2r117tbb_exception_ptr10throw_selfEv(ptr noundef nonnull align 8 dereferenceable(8) %0) #6 align 2 personality ptr @__gxx_personality_v0 {
  %2 = alloca ptr, align 8
  %3 = alloca %"class.std::__exception_ptr::exception_ptr", align 8
  %4 = alloca ptr, align 8
  %5 = alloca i32, align 4
  store ptr %0, ptr %2, align 8, !tbaa !3
  %6 = load ptr, ptr %2, align 8
  %7 = call noundef zeroext i1 @_ZN3tbb6detail2r18governor24rethrow_exception_brokenEv()
  br i1 %7, label %8, label %9

8:                                                ; preds = %1
  call void @_ZN3tbb6detail2r118fix_broken_rethrowEv()
  br label %9

9:                                                ; preds = %8, %1
  %10 = getelementptr inbounds nuw %"class.tbb::detail::r1::tbb_exception_ptr", ptr %6, i32 0, i32 0
  call void @_ZNSt15__exception_ptr13exception_ptrC2ERKS0_(ptr noundef nonnull align 8 dereferenceable(8) %3, ptr noundef nonnull align 8 dereferenceable(8) %10) #12
  invoke void @_ZSt17rethrow_exceptionNSt15__exception_ptr13exception_ptrE(ptr noundef %3) #14
          to label %11 unwind label %12

11:                                               ; preds = %9
  unreachable

12:                                               ; preds = %9
  %13 = landingpad { ptr, i32 }
          cleanup
  %14 = extractvalue { ptr, i32 } %13, 0
  store ptr %14, ptr %4, align 8
  %15 = extractvalue { ptr, i32 } %13, 1
  store i32 %15, ptr %5, align 4
  call void @_ZNSt15__exception_ptr13exception_ptrD2Ev(ptr noundef nonnull align 8 dereferenceable(8) %3) #12
  br label %16

16:                                               ; preds = %12
  %17 = load ptr, ptr %4, align 8
  %18 = load i32, ptr %5, align 4
  %19 = insertvalue { ptr, i32 } poison, ptr %17, 0
  %20 = insertvalue { ptr, i32 } %19, i32 %18, 1
  resume { ptr, i32 } %20
}