; Function Attrs: mustprogress noreturn sspstrong uwtable
define void @_ZN3tbb6detail2r117tbb_exception_ptr10throw_selfEv(ptr noundef nonnull readonly align 8 captures(none) dereferenceable(8) %0) local_unnamed_addr #6 align 2 personality ptr @__gxx_personality_v0 {
  %2 = alloca %"class.std::__exception_ptr::exception_ptr", align 8
  %3 = load i8, ptr @_ZN3tbb6detail2r18governor17is_rethrow_brokenE, align 1, !tbaa !8, !range !10, !noundef !11
  %4 = trunc nuw i8 %3 to i1
  br i1 %4, label %5, label %6

5:                                                ; preds = %1
  tail call void @_ZN3tbb6detail2r118fix_broken_rethrowEv()
  br label %6

6:                                                ; preds = %5, %1
  %7 = load ptr, ptr %0, align 8, !tbaa !3
  store ptr %7, ptr %2, align 8, !tbaa !3
  %.not.i = icmp eq ptr %7, null
  br i1 %.not.i, label %_ZNSt15__exception_ptr13exception_ptrC2ERKS0_.exit, label %8

8:                                                ; preds = %6
  call void @_ZNSt15__exception_ptr13exception_ptr9_M_addrefEv(ptr noundef nonnull align 8 dereferenceable(8) %2) #13
  br label %_ZNSt15__exception_ptr13exception_ptrC2ERKS0_.exit

_ZNSt15__exception_ptr13exception_ptrC2ERKS0_.exit: ; preds = %6, %8
  invoke void @_ZSt17rethrow_exceptionNSt15__exception_ptr13exception_ptrE(ptr noundef nonnull %2) #17
          to label %9 unwind label %10

9:                                                ; preds = %_ZNSt15__exception_ptr13exception_ptrC2ERKS0_.exit
  unreachable

10:                                               ; preds = %_ZNSt15__exception_ptr13exception_ptrC2ERKS0_.exit
  %11 = landingpad { ptr, i32 }
          cleanup
  %12 = load ptr, ptr %2, align 8, !tbaa !3
  %.not.i2 = icmp eq ptr %12, null
  br i1 %.not.i2, label %_ZNSt15__exception_ptr13exception_ptrD2Ev.exit, label %13

13:                                               ; preds = %10
  call void @_ZNSt15__exception_ptr13exception_ptr10_M_releaseEv(ptr noundef nonnull align 8 dereferenceable(8) %2) #13
  br label %_ZNSt15__exception_ptr13exception_ptrD2Ev.exit

_ZNSt15__exception_ptr13exception_ptrD2Ev.exit:   ; preds = %10, %13
  resume { ptr, i32 } %11
}